target datalayout = "e-m:e-p270:32:32-p271:32:32-p272:64:64-i64:64-i128:128-f80:128-n8:16:32:64-S128"
target triple = "x86_64-pc-linux-gnu"

%struct.QMetaObject = type { %"struct.QMetaObject::Data" }
%"struct.QMetaObject::Data" = type { %"struct.QMetaObject::SuperData", ptr, ptr, ptr, ptr, ptr, ptr }
%"struct.QMetaObject::SuperData" = type { ptr }
%class.QVariant = type { %"struct.QVariant::Private" }
%"struct.QVariant::Private" = type { %union.anon, i64 }
%union.anon = type { ptr, [16 x i8] }
%class.QMetaType = type { ptr }

@.str.1 = private unnamed_addr constant [8 x i8] c"copy_as\00", align 1
@.str.2 = private unnamed_addr constant [9 x i8] c"selected\00", align 1
@_ZN7QAction16staticMetaObjectE = external global %struct.QMetaObject, align 8

; Function Attrs: mustprogress nounwind uwtable
define linkonce_odr void @_ZN9QMetaTypeC2EPKN9QtPrivate18QMetaTypeInterfaceE(ptr noundef nonnull align 8 dereferenceable(8) %0, ptr noundef %1) unnamed_addr #2 comdat align 2 {
  %3 = alloca ptr, align 8
  %4 = alloca ptr, align 8
  store ptr %0, ptr %3, align 8
  store ptr %1, ptr %4, align 8
  %5 = load ptr, ptr %3, align 8
  %6 = getelementptr inbounds %class.QMetaType, ptr %5, i32 0, i32 0
  %7 = load ptr, ptr %4, align 8
  store ptr %7, ptr %6, align 8
  ret void
}

; Function Attrs: mustprogress uwtable
define linkonce_odr ptr @_ZNK8QVariant7Private4typeEv(ptr noundef nonnull align 8 dereferenceable(32) %0) #0 comdat align 2 {
  %2 = alloca %class.QMetaType, align 8
  %3 = alloca ptr, align 8
  store ptr %0, ptr %3, align 8
  %4 = load ptr, ptr %3, align 8
  %5 = getelementptr inbounds %"struct.QVariant::Private", ptr %4, i32 0, i32 1
  %6 = load i64, ptr %5, align 8
  %7 = lshr i64 %6, 2
  %8 = shl i64 %7, 2
  %9 = inttoptr i64 %8 to ptr
  call void @_ZN9QMetaTypeC2EPKN9QtPrivate18QMetaTypeInterfaceE(ptr noundef nonnull align 8 dereferenceable(8) %2, ptr noundef %9)
  %10 = getelementptr inbounds %class.QMetaType, ptr %2, i32 0, i32 0
  %11 = load ptr, ptr %10, align 8
  ret ptr %11
}

; Function Attrs: mustprogress uwtable
define linkonce_odr noundef ptr @_ZNK11QMetaObject4castEP7QObject(ptr noundef nonnull align 8 dereferenceable(56) %0, ptr noundef %1) #0 comdat align 2 {
  %3 = alloca ptr, align 8
  %4 = alloca ptr, align 8
  store ptr %0, ptr %3, align 8
  store ptr %1, ptr %4, align 8
  %5 = load ptr, ptr %3, align 8
  %6 = load ptr, ptr %4, align 8
  %7 = call noundef ptr @_ZNK11QMetaObject4castEPK7QObject(ptr noundef nonnull align 8 dereferenceable(56) %5, ptr noundef %6)
  ret ptr %7
}

; Function Attrs: mustprogress uwtable
define linkonce_odr noundef zeroext i1 @_ZNK8QVariant7isValidEv(ptr noundef nonnull align 8 dereferenceable(32) %0) #0 comdat align 2 {
  %2 = alloca ptr, align 8
  %3 = alloca %class.QMetaType, align 8
  store ptr %0, ptr %2, align 8
  %4 = load ptr, ptr %2, align 8
  %5 = getelementptr inbounds %class.QVariant, ptr %4, i32 0, i32 0
  %6 = call ptr @_ZNK8QVariant7Private4typeEv(ptr noundef nonnull align 8 dereferenceable(32) %5)
  %7 = getelementptr inbounds %class.QMetaType, ptr %3, i32 0, i32 0
  store ptr %6, ptr %7, align 8
  %8 = call noundef zeroext i1 @_ZNK9QMetaType7isValidEv(ptr noundef nonnull align 8 dereferenceable(8) %3)
  ret i1 %8
}

; Function Attrs: mustprogress uwtable
define linkonce_odr noundef ptr @_Z12qobject_castIP7QActionET_P7QObject(ptr noundef %0) #0 comdat {
  %2 = alloca ptr, align 8
  store ptr %0, ptr %2, align 8
  %3 = load ptr, ptr %2, align 8
  %4 = call noundef ptr @_ZNK11QMetaObject4castEP7QObject(ptr noundef nonnull align 8 dereferenceable(56) @_ZN7QAction16staticMetaObjectE, ptr noundef %3)
  ret ptr %4
}

; Function Attrs: mustprogress uwtable
define void @_ZN21ResolvedAddressesView15clipboardActionEv(ptr noundef nonnull align 8 dereferenceable(48) %0) #0 align 2 personality ptr @__gxx_personality_v0 {
  %2 = alloca ptr, align 8
  %3 = alloca ptr, align 8
  %4 = alloca %class.QVariant, align 8
  %5 = alloca i1, align 1
  %6 = alloca ptr, align 8
  %7 = alloca i32, align 4
  %8 = alloca %class.QVariant, align 8
  %9 = alloca %class.QVariant, align 8
  store ptr %0, ptr %2, align 8
  %10 = load ptr, ptr %2, align 8
  %11 = call noundef ptr @_ZNK7QObject6senderEv(ptr noundef nonnull align 8 dereferenceable(16) %10)
  %12 = call noundef ptr @_Z12qobject_castIP7QActionET_P7QObject(ptr noundef %11)
  store ptr %12, ptr %3, align 8
  %13 = load ptr, ptr %3, align 8
  %14 = icmp ne ptr %13, null
  store i1 false, ptr %5, align 1
  br i1 %14, label %15, label %19

15:                                               ; preds = %1
  %16 = load ptr, ptr %3, align 8
  call void @_ZNK7QObject8propertyEPKc(ptr dead_on_unwind writable sret(%class.QVariant) align 8 %4, ptr noundef nonnull align 8 dereferenceable(16) %16, ptr noundef @.str.1)
  store i1 true, ptr %5, align 1
  %17 = invoke noundef zeroext i1 @_ZNK8QVariant7isValidEv(ptr noundef nonnull align 8 dereferenceable(32) %4)
          to label %18 unwind label %33

18:                                               ; preds = %15
  br label %19

19:                                               ; preds = %18, %1
  %20 = phi i1 [ false, %1 ], [ %17, %18 ]
  %21 = load i1, ptr %5, align 1
  br i1 %21, label %22, label %23

22:                                               ; preds = %19
  call void @_ZN8QVariantD1Ev(ptr noundef nonnull align 8 dereferenceable(32) %4) #14
  br label %23

23:                                               ; preds = %22, %19
  br i1 %20, label %24, label %49

24:                                               ; preds = %23
  %25 = load ptr, ptr %3, align 8
  call void @_ZNK7QObject8propertyEPKc(ptr dead_on_unwind writable sret(%class.QVariant) align 8 %8, ptr noundef nonnull align 8 dereferenceable(16) %25, ptr noundef @.str.1)
  %26 = invoke noundef i32 @_ZNK8QVariant5toIntEPb(ptr noundef nonnull align 8 dereferenceable(32) %8, ptr noundef null)
          to label %27 unwind label %40

27:                                               ; preds = %24
  %28 = load ptr, ptr %3, align 8
  invoke void @_ZNK7QObject8propertyEPKc(ptr dead_on_unwind writable sret(%class.QVariant) align 8 %9, ptr noundef nonnull align 8 dereferenceable(16) %28, ptr noundef @.str.2)
          to label %29 unwind label %40

29:                                               ; preds = %27
  %30 = invoke noundef zeroext i1 @_ZNK8QVariant6toBoolEv(ptr noundef nonnull align 8 dereferenceable(32) %9)
          to label %31 unwind label %44

31:                                               ; preds = %29
  invoke void @_ZN21ResolvedAddressesView15copyToClipboardENS_24eResolvedAddressesExportEb(ptr noundef nonnull align 8 dereferenceable(48) %10, i32 noundef %26, i1 noundef zeroext %30)
          to label %32 unwind label %44

32:                                               ; preds = %31
  call void @_ZN8QVariantD1Ev(ptr noundef nonnull align 8 dereferenceable(32) %9) #14
  call void @_ZN8QVariantD1Ev(ptr noundef nonnull align 8 dereferenceable(32) %8) #14
  br label %49

33:                                               ; preds = %15
  %34 = landingpad { ptr, i32 }
          cleanup
  %35 = extractvalue { ptr, i32 } %34, 0
  store ptr %35, ptr %6, align 8
  %36 = extractvalue { ptr, i32 } %34, 1
  store i32 %36, ptr %7, align 4
  %37 = load i1, ptr %5, align 1
  br i1 %37, label %38, label %39

38:                                               ; preds = %33
  call void @_ZN8QVariantD1Ev(ptr noundef nonnull align 8 dereferenceable(32) %4) #14
  br label %39

39:                                               ; preds = %38, %33
  br label %50

40:                                               ; preds = %27, %24
  %41 = landingpad { ptr, i32 }
          cleanup
  %42 = extractvalue { ptr, i32 } %41, 0
  store ptr %42, ptr %6, align 8
  %43 = extractvalue { ptr, i32 } %41, 1
  store i32 %43, ptr %7, align 4
  br label %48

44:                                               ; preds = %31, %29
  %45 = landingpad { ptr, i32 }
          cleanup
  %46 = extractvalue { ptr, i32 } %45, 0
  store ptr %46, ptr %6, align 8
  %47 = extractvalue { ptr, i32 } %45, 1
  store i32 %47, ptr %7, align 4
  call void @_ZN8QVariantD1Ev(ptr noundef nonnull align 8 dereferenceable(32) %9) #14
  br label %48

48:                                               ; preds = %44, %40
  call void @_ZN8QVariantD1Ev(ptr noundef nonnull align 8 dereferenceable(32) %8) #14
  br label %50

49:                                               ; preds = %32, %23
  ret void

50:                                               ; preds = %48, %39
  %51 = load ptr, ptr %6, align 8
  %52 = load i32, ptr %7, align 4
  %53 = insertvalue { ptr, i32 } poison, ptr %51, 0
  %54 = insertvalue { ptr, i32 } %53, i32 %52, 1
  resume { ptr, i32 } %54
}