; Function Attrs: mustprogress uwtable
define void @_ZN21ResolvedAddressesView15clipboardActionEv(ptr noundef nonnull align 8 dereferenceable(48) %0) #0 align 2 personality ptr @__gxx_personality_v0 {
  %2 = alloca %class.QMetaType, align 8
  %3 = alloca %class.QVariant, align 8
  %4 = alloca %class.QVariant, align 8
  %5 = alloca %class.QVariant, align 8
  %6 = tail call noundef ptr @_ZNK7QObject6senderEv(ptr noundef nonnull align 8 dereferenceable(16) %0)
  %7 = tail call noundef ptr @_ZNK11QMetaObject4castEPK7QObject(ptr noundef nonnull align 8 dereferenceable(56) @_ZN7QAction16staticMetaObjectE, ptr noundef %6)
  %.not.not = icmp eq ptr %7, null
  br i1 %.not.not, label %.thread14, label %8

8:                                                ; preds = %1
  call void @_ZNK7QObject8propertyEPKc(ptr dead_on_unwind nonnull writable sret(%class.QVariant) align 8 %3, ptr noundef nonnull align 8 dereferenceable(16) %7, ptr noundef nonnull @.str.1)
  call void @llvm.lifetime.start.p0(i64 8, ptr nonnull %2)
  %9 = getelementptr inbounds i8, ptr %3, i64 24
  %10 = load i64, ptr %9, align 8
  %11 = and i64 %10, -4
  %12 = inttoptr i64 %11 to ptr
  store ptr %12, ptr %2, align 8
  %13 = invoke noundef zeroext i1 @_ZNK9QMetaType7isValidEv(ptr noundef nonnull align 8 dereferenceable(8) %2)
          to label %14 unwind label %22

14:                                               ; preds = %8
  call void @llvm.lifetime.end.p0(i64 8, ptr nonnull %2)
  call void @_ZN8QVariantD1Ev(ptr noundef nonnull align 8 dereferenceable(32) %3) #16
  br i1 %13, label %15, label %.thread14

15:                                               ; preds = %14
  call void @_ZNK7QObject8propertyEPKc(ptr dead_on_unwind nonnull writable sret(%class.QVariant) align 8 %4, ptr noundef nonnull align 8 dereferenceable(16) %7, ptr noundef nonnull @.str.1)
  %16 = invoke noundef i32 @_ZNK8QVariant5toIntEPb(ptr noundef nonnull align 8 dereferenceable(32) %4, ptr noundef null)
          to label %17 unwind label %24

17:                                               ; preds = %15
  invoke void @_ZNK7QObject8propertyEPKc(ptr dead_on_unwind nonnull writable sret(%class.QVariant) align 8 %5, ptr noundef nonnull align 8 dereferenceable(16) %7, ptr noundef nonnull @.str.2)
          to label %18 unwind label %24

18:                                               ; preds = %17
  %19 = invoke noundef zeroext i1 @_ZNK8QVariant6toBoolEv(ptr noundef nonnull align 8 dereferenceable(32) %5)
          to label %20 unwind label %26

20:                                               ; preds = %18
  invoke void @_ZN21ResolvedAddressesView15copyToClipboardENS_24eResolvedAddressesExportEb(ptr noundef nonnull align 8 dereferenceable(48) %0, i32 noundef %16, i1 noundef zeroext %19)
          to label %21 unwind label %26

21:                                               ; preds = %20
  call void @_ZN8QVariantD1Ev(ptr noundef nonnull align 8 dereferenceable(32) %5) #16
  call void @_ZN8QVariantD1Ev(ptr noundef nonnull align 8 dereferenceable(32) %4) #16
  br label %.thread14

22:                                               ; preds = %8
  %23 = landingpad { ptr, i32 }
          cleanup
  br label %28

24:                                               ; preds = %17, %15
  %25 = landingpad { ptr, i32 }
          cleanup
  br label %28

26:                                               ; preds = %20, %18
  %27 = landingpad { ptr, i32 }
          cleanup
  call void @_ZN8QVariantD1Ev(ptr noundef nonnull align 8 dereferenceable(32) %5) #16
  br label %28

.thread14:                                        ; preds = %1, %21, %14
  ret void

28:                                               ; preds = %24, %26, %22
  %.sink = phi ptr [ %3, %22 ], [ %4, %26 ], [ %4, %24 ]
  %.pn.pn = phi { ptr, i32 } [ %23, %22 ], [ %27, %26 ], [ %25, %24 ]
  call void @_ZN8QVariantD1Ev(ptr noundef nonnull align 8 dereferenceable(32) %.sink) #16
  resume { ptr, i32 } %.pn.pn
}